; Function Attrs: mustprogress uwtable
define void @_ZN5faiss10IndexNSGSQC2EiNS_15ScalarQuantizer13QuantizerTypeEiNS_10MetricTypeE(ptr noundef nonnull align 8 dereferenceable(5132) %0, i32 noundef %1, i32 noundef %2, i32 noundef %3, i32 noundef %4) unnamed_addr #1 align 2 personality ptr @__gxx_personality_v0 {
  %6 = tail call noalias noundef nonnull dereferenceable(144) ptr @_Znwm(i64 noundef 144) #21
  invoke void @_ZN5faiss20IndexScalarQuantizerC1EiNS_15ScalarQuantizer13QuantizerTypeENS_10MetricTypeE(ptr noundef nonnull align 8 dereferenceable(144) %6, i32 noundef %1, i32 noundef %2, i32 noundef %4)
          to label %7 unwind label %30

7:                                                ; preds = %5
  %8 = getelementptr inbounds i8, ptr %6, i64 8
  %9 = load i32, ptr %8, align 8
  %10 = getelementptr inbounds i8, ptr %6, i64 28
  %11 = load i32, ptr %10, align 4
  %12 = getelementptr inbounds i8, ptr %0, i64 8
  store i32 %9, ptr %12, align 8
  %13 = getelementptr inbounds i8, ptr %0, i64 16
  store i64 0, ptr %13, align 8
  %14 = getelementptr inbounds i8, ptr %0, i64 24
  store i8 0, ptr %14, align 8
  %15 = getelementptr inbounds i8, ptr %0, i64 25
  store i8 1, ptr %15, align 1
  %16 = getelementptr inbounds i8, ptr %0, i64 28
  store i32 %11, ptr %16, align 4
  %17 = getelementptr inbounds i8, ptr %0, i64 32
  store float 0.000000e+00, ptr %17, align 8
  store ptr getelementptr inbounds ({ [24 x ptr] }, ptr @_ZTVN5faiss8IndexNSGE, i64 0, i32 0, i64 2), ptr %0, align 8
  %18 = getelementptr inbounds i8, ptr %0, i64 40
  invoke void @_ZN5faiss3NSGC1Ei(ptr noundef nonnull align 8 dereferenceable(5048) %18, i32 noundef %3)
          to label %_ZN5faiss8IndexNSGC2EPNS_5IndexEi.exit unwind label %19

common.resume:                                    ; preds = %30, %19
  %common.resume.op = phi { ptr, i32 } [ %20, %19 ], [ %31, %30 ]
  resume { ptr, i32 } %common.resume.op

19:                                               ; preds = %7
  %20 = landingpad { ptr, i32 }
          cleanup
  tail call void @_ZN5faiss5IndexD2Ev(ptr noundef nonnull align 8 dereferenceable(36) %0) #8
  br label %common.resume

_ZN5faiss8IndexNSGC2EPNS_5IndexEi.exit:           ; preds = %7
  %21 = getelementptr inbounds i8, ptr %0, i64 5088
  %22 = getelementptr inbounds i8, ptr %0, i64 5096
  store ptr %6, ptr %22, align 8
  %23 = getelementptr inbounds i8, ptr %0, i64 5104
  store i8 0, ptr %23, align 8
  %24 = getelementptr inbounds i8, ptr %0, i64 5108
  store i32 64, ptr %24, align 4
  %25 = getelementptr inbounds i8, ptr %0, i64 5112
  store i8 1, ptr %25, align 8
  %26 = getelementptr inbounds i8, ptr %0, i64 5116
  store <4 x i32> <i32 10, i32 100, i32 114, i32 10>, ptr %26, align 4
  store ptr getelementptr inbounds ({ [24 x ptr] }, ptr @_ZTVN5faiss10IndexNSGSQE, i64 0, i32 0, i64 2), ptr %0, align 8
  %27 = getelementptr inbounds i8, ptr %6, i64 25
  %28 = load i8, ptr %27, align 1
  %29 = and i8 %28, 1
  store i8 %29, ptr %15, align 1
  store i8 1, ptr %21, align 8
  ret void

30:                                               ; preds = %5
  %31 = landingpad { ptr, i32 }
          cleanup
  tail call void @_ZdlPv(ptr noundef nonnull %6) #19
  br label %common.resume
}